target datalayout = "e-m:e-p270:32:32-p271:32:32-p272:64:64-i64:64-i128:128-f80:128-n8:16:32:64-S128"
target triple = "x86_64-unknown-linux-gnu"

%"class.std::__cxx11::basic_string" = type { %"struct.std::__cxx11::basic_string<char>::_Alloc_hider", i64, %union.anon.4 }
%"struct.std::__cxx11::basic_string<char>::_Alloc_hider" = type { ptr }
%union.anon.4 = type { i64, [8 x i8] }
%"class.std::basic_istream.base" = type { ptr, i64 }
%"class.std::basic_streambuf" = type { ptr, ptr, ptr, ptr, ptr, ptr, ptr, %"class.std::locale" }
%"class.std::locale" = type { ptr }
%"class.std::basic_ios" = type { %"class.std::ios_base", ptr, i8, i8, ptr, ptr, ptr, ptr }
%"class.std::ios_base" = type { ptr, i64, i64, i32, i32, i32, ptr, %"struct.std::ios_base::_Words", [8 x %"struct.std::ios_base::_Words"], i32, ptr, %"class.std::locale" }
%"struct.std::ios_base::_Words" = type { ptr, i64 }
%"class.std::__cxx11::basic_stringstream" = type { %"class.std::basic_iostream.base", %"class.std::__cxx11::basic_stringbuf", %"class.std::basic_ios" }
%"class.std::basic_iostream.base" = type { %"class.std::basic_istream.base", %"class.std::basic_ostream.base" }
%"class.std::basic_ostream.base" = type { ptr }
%"class.std::__cxx11::basic_stringbuf" = type { %"class.std::basic_streambuf", i32, %"class.std::__cxx11::basic_string" }
%"struct.std::_Setw" = type { i32 }
%"struct.std::_Setfill" = type { i8 }

@.str.62 = private unnamed_addr constant [3 x i8] c"\\u\00", align 1

; Function Attrs: mustprogress nounwind uwtable
define linkonce_odr dso_local i8 @_ZSt7setfillIcESt8_SetfillIT_ES1_(i8 noundef signext %__c) #1 comdat {
entry:
  %retval = alloca %"struct.std::_Setfill", align 1
  %__c.addr = alloca i8, align 1
  store i8 %__c, ptr %__c.addr, align 1
  %_M_c = getelementptr inbounds %"struct.std::_Setfill", ptr %retval, i32 0, i32 0
  %0 = load i8, ptr %__c.addr, align 1
  store i8 %0, ptr %_M_c, align 1
  %coerce.dive = getelementptr inbounds %"struct.std::_Setfill", ptr %retval, i32 0, i32 0
  %1 = load i8, ptr %coerce.dive, align 1
  ret i8 %1
}

; Function Attrs: mustprogress nounwind uwtable
define linkonce_odr dso_local i32 @_ZSt4setwi(i32 noundef %__n) #1 comdat {
entry:
  %retval = alloca %"struct.std::_Setw", align 4
  %__n.addr = alloca i32, align 4
  store i32 %__n, ptr %__n.addr, align 4
  %_M_n = getelementptr inbounds %"struct.std::_Setw", ptr %retval, i32 0, i32 0
  %0 = load i32, ptr %__n.addr, align 4
  store i32 %0, ptr %_M_n, align 4
  %coerce.dive = getelementptr inbounds %"struct.std::_Setw", ptr %retval, i32 0, i32 0
  %1 = load i32, ptr %coerce.dive, align 4
  ret i32 %1
}

; Function Attrs: mustprogress uwtable
define internal void @"_ZZL19DOCTEST_ANON_FUNC_7vENK3$_1clB5cxx11Em"(ptr noalias sret(%"class.std::__cxx11::basic_string") align 8 %agg.result, ptr noundef nonnull align 1 dereferenceable(1) %this, i64 noundef %cp) #4 align 2 personality ptr @__gxx_personality_v0 {
entry:
  %result.ptr = alloca ptr, align 8
  %this.addr = alloca ptr, align 8
  %cp.addr = alloca i64, align 8
  %ss = alloca %"class.std::__cxx11::basic_stringstream", align 8
  %exn.slot = alloca ptr, align 8
  %ehselector.slot = alloca i32, align 4
  %agg.tmp = alloca %"struct.std::_Setw", align 4
  %agg.tmp7 = alloca %"struct.std::_Setfill", align 1
  store ptr %agg.result, ptr %result.ptr, align 8
  store ptr %this, ptr %this.addr, align 8
  store i64 %cp, ptr %cp.addr, align 8
  call void @_ZNSt7__cxx1118basic_stringstreamIcSt11char_traitsIcESaIcEEC1Ev(ptr noundef nonnull align 8 dereferenceable(128) %ss)
  %add.ptr = getelementptr inbounds i8, ptr %ss, i64 16
  %call = invoke noundef nonnull align 8 dereferenceable(8) ptr @_ZStlsISt11char_traitsIcEERSt13basic_ostreamIcT_ES5_PKc(ptr noundef nonnull align 8 dereferenceable(8) %add.ptr, ptr noundef @.str.62)
          to label %invoke.cont unwind label %lpad

invoke.cont:                                      ; preds = %entry
  %call3 = invoke i32 @_ZSt4setwi(i32 noundef 4)
          to label %invoke.cont2 unwind label %lpad

invoke.cont2:                                     ; preds = %invoke.cont
  %coerce.dive = getelementptr inbounds %"struct.std::_Setw", ptr %agg.tmp, i32 0, i32 0
  store i32 %call3, ptr %coerce.dive, align 4
  %coerce.dive4 = getelementptr inbounds %"struct.std::_Setw", ptr %agg.tmp, i32 0, i32 0
  %0 = load i32, ptr %coerce.dive4, align 4
  %call6 = invoke noundef nonnull align 8 dereferenceable(8) ptr @_ZStlsIcSt11char_traitsIcEERSt13basic_ostreamIT_T0_ES6_St5_Setw(ptr noundef nonnull align 8 dereferenceable(8) %call, i32 %0)
          to label %invoke.cont5 unwind label %lpad

invoke.cont5:                                     ; preds = %invoke.cont2
  %call9 = invoke i8 @_ZSt7setfillIcESt8_SetfillIT_ES1_(i8 noundef signext 48)
          to label %invoke.cont8 unwind label %lpad

invoke.cont8:                                     ; preds = %invoke.cont5
  %coerce.dive10 = getelementptr inbounds %"struct.std::_Setfill", ptr %agg.tmp7, i32 0, i32 0
  store i8 %call9, ptr %coerce.dive10, align 1
  %coerce.dive11 = getelementptr inbounds %"struct.std::_Setfill", ptr %agg.tmp7, i32 0, i32 0
  %1 = load i8, ptr %coerce.dive11, align 1
  %call13 = invoke noundef nonnull align 8 dereferenceable(8) ptr @_ZStlsIcSt11char_traitsIcEERSt13basic_ostreamIT_T0_ES6_St8_SetfillIS3_E(ptr noundef nonnull align 8 dereferenceable(8) %call6, i8 %1)
          to label %invoke.cont12 unwind label %lpad

invoke.cont12:                                    ; preds = %invoke.cont8
  %call15 = invoke noundef nonnull align 8 dereferenceable(8) ptr @_ZNSolsEPFRSt8ios_baseS0_E(ptr noundef nonnull align 8 dereferenceable(8) %call13, ptr noundef @_ZSt3hexRSt8ios_base)
          to label %invoke.cont14 unwind label %lpad

invoke.cont14:                                    ; preds = %invoke.cont12
  %2 = load i64, ptr %cp.addr, align 8
  %call17 = invoke noundef nonnull align 8 dereferenceable(8) ptr @_ZNSolsEm(ptr noundef nonnull align 8 dereferenceable(8) %call15, i64 noundef %2)
          to label %invoke.cont16 unwind label %lpad

invoke.cont16:                                    ; preds = %invoke.cont14
  invoke void @_ZNKSt7__cxx1118basic_stringstreamIcSt11char_traitsIcESaIcEE3strEv(ptr sret(%"class.std::__cxx11::basic_string") align 8 %agg.result, ptr noundef nonnull align 8 dereferenceable(128) %ss)
          to label %invoke.cont18 unwind label %lpad

invoke.cont18:                                    ; preds = %invoke.cont16
  call void @_ZNSt7__cxx1118basic_stringstreamIcSt11char_traitsIcESaIcEED1Ev(ptr noundef nonnull align 8 dereferenceable(128) %ss) #19
  ret void

lpad:                                             ; preds = %invoke.cont16, %invoke.cont14, %invoke.cont12, %invoke.cont8, %invoke.cont5, %invoke.cont2, %invoke.cont, %entry
  %3 = landingpad { ptr, i32 }
          cleanup
  %4 = extractvalue { ptr, i32 } %3, 0
  store ptr %4, ptr %exn.slot, align 8
  %5 = extractvalue { ptr, i32 } %3, 1
  store i32 %5, ptr %ehselector.slot, align 4
  call void @_ZNSt7__cxx1118basic_stringstreamIcSt11char_traitsIcESaIcEED1Ev(ptr noundef nonnull align 8 dereferenceable(128) %ss) #19
  br label %eh.resume

eh.resume:                                        ; preds = %lpad
  %exn = load ptr, ptr %exn.slot, align 8
  %sel = load i32, ptr %ehselector.slot, align 4
  %lpad.val = insertvalue { ptr, i32 } poison, ptr %exn, 0
  %lpad.val19 = insertvalue { ptr, i32 } %lpad.val, i32 %sel, 1
  resume { ptr, i32 } %lpad.val19
}